(dp1
S'output'
p2
S"<type 'exceptions.ImportError'> Cannot import module 'Image'"
p3
sS'layer'
p4
S'C:\\Syzygy\\web2py\\applications\\PlayersATX\\models\\db_settings.py'
p5
sS'code'
p6
S'# coding: utf8\n\ndb.define_table(\'basic_site\',\n\t\t\t\tField(\'page_title\', \'string\', writable=True, label=\'Page Title\', comment="The title in the browser tab"),\n\t\t\t\tField(\'page_header\', \'string\', writable=True, label=\'Page Heading\', comment="The main heading at the top of the page"),\n\t\t\t\tField(\'page_footer\', \'string\', writable=True, label=\'Page Footer\', comment="The banner at the bottom of the page"),\n\t\t\t\tField(\'page_subheader\', \'string\', writable=True, label=\'Page Sub Heading\', comment="The second heading on the page"),\n\t\t\t\tField(\'page_tagline\', \'string\', writable=True, label=\'Page Tag Line\', comment="The page tag line under sub heading"),\n\t\t\t\tField(\'page_desc\', \'text\', writable=True, label=\'Page Description\', comment="The page description used for search engines"),\n\t\t\t\tField(\'background_color\', \'string\', writable=True, label=\'Background Color\', comment="Hashtag plus 3 or 6 digits, EG #fff or #ffffff"),\n\t\t\t\tField(\'background_img\', \'integer\', writable=True, label=\'Page Background Image\'),\n\t\t\t\tField(\'background_img_style\', writable=True, requires=IS_IN_SET([\'tile\', \'center\', \'stretch\']), default=\'center\', label=\'Background Image Style\'),\n\t\t\t\tField(\'modified\', \'datetime\', writable=False, default=request.now, update=request.now))\n\ndb.define_table(\'page_types\',\n\t\t\t\tField(\'page_name\', \'string\', writable=True, label=\'Page Name\'),\n\t\t\t\tField(\'page_file\', \'string\', writable=True, label=\'Page File\'))\n\ndb.define_table(\'layout_styles\',\n\t\t\t\tField(\'layout_label\', \'string\', writable=False, label=\'Page Name\'))\n\ndb.define_table(\'page_settings\',\n\t\t\t\tField(\'page_type\', \'reference page_types\'),\n\t\t\t\tField(\'data_type\', writable=True, requires=IS_IN_SET([\'content\', \'event\', \'partner\']), label=\'Just Content or an Event?\'),\n\t\t\t\tField(\'data_card\', \'integer\', writable=False),\n\t\t\t\tField(\'data_order\', \'integer\', writable=False),\n\t\t\t\tField(\'alt_image\', \'boolean\', writable=True, default=False, label=\'Use alternate image?\'),\n\t\t\t\tField(\'layout_style\', \'integer\', requires=IS_IN_DB(db, db.layout_styles.id, \'%(layout_label)s\', zero=None), default=1, writable=True, label=\'Choose a layout style\'),\n\t\t\t\tField(\'image_size\', \'integer\', writable=True, default=25, label=\'Image Size\', comment="how big will the images be (in percentage, but just give us the number)"))\n\ndb.define_table(\'content_card\',\n\t\t\t\tField(\'card_name\', \'string\', writable=True, label=\'Content Card Name\'),\n\t\t\t\tField(\'card_heading\', \'string\', writable=True, label=\'Content Card Heading\'),\n\t\t\t\tField(\'left_image\', \'integer\', writable=False, label=\'Left Image\'),\n\t\t\t\tField(\'right_image\', \'integer\', writable=False, label=\'Right Image\'),\n\t\t\t\tField(\'body_text\', \'text\', writable=True, label=\'Content\'),\n\t\t\t\tField(\'created\', \'datetime\', writable=False, default=request.now),\n\t\t\t\tField(\'modified\', \'datetime\', writable=False, default=request.now, update=request.now))\n\ndb.define_table(\'events\',\n\t\t\t\tField(\'event_name\', \'string\', writable=True, label=\'Event Name\'),\n\t\t\t\tField(\'event_heading\', \'string\', writable=True, label=\'Event Heading\'),\n\t\t\t\tField(\'event_image\', \'integer\', writable=False, label=\'Event Image\'),\n\t\t\t\tField(\'body_text\', \'text\', writable=True, label=\'Content\'),\n\t\t\t\tField(\'expiration\', \'date\', writable=True, label=\'Event Date\', comment="Leave blank for recurring events"),\n\t\t\t\tField(\'created\', \'datetime\', writable=False, default=request.now),\n\t\t\t\tField(\'modified\', \'datetime\', writable=False, default=request.now, update=request.now))\n\ndb.define_table(\'partners\',\n\t\t\t\tField(\'page_id\', \'reference page_settings\'),\n\t\t\t\tField(\'partner_name\', \'string\', writable=True, label=\'Partner Name\'),\n\t\t\t\tField(\'partner_heading\', \'string\', writable=True, label=\'Partner Heading\'),\n\t\t\t\tField(\'partner_image_link\', \'string\', writable=True, label=\'Partner Image URL\', comment="if the partners image is just a URL, paste in the link"),\n\t\t\t\tField(\'partner_image\', \'integer\', writable=True, label=\'Partner Image\', comment="if the partners image is in your image library"),\n\t\t\t\tField(\'display_style\', writable=True, requires=IS_IN_SET([\'tile\', \'banner\', \'text only\']), default=\'tile\', label=\'How should this link appear\'),\n\t\t\t\tField(\'created\', \'datetime\', writable=False, default=request.now),\n\t\t\t\tField(\'modified\', \'datetime\', writable=False, default=request.now, update=request.now))\n\nsite_media = db.define_table(\'image_library\',\n\t\t\t\tField(\'image_name\', \'string\', writable=True, label=\'Image Name\'),\n\t\t\t\tField(\'image_desc\', \'text\', writable=True, label=\'Image Description\'),\n\t\t\t\tField(\'keywords\', \'string\', writable=True, label=\'Key Words\', comment="Words to rapidly search for an image in this system"),\n\t\t\t\tField(\'created\', \'datetime\', writable=False, default=request.now),\n\t\t\t\tField(\'modified\', \'datetime\', writable=False, default=request.now, update=request.now),\n\t\t\t\tField(\'image_file\', \'upload\', requires=IS_IMAGE(extensions=(\'jpeg\', \'png\')), autodelete=True, label=\'Image\', comment="Jpegs and PNGs only please"),\n\t\t\t\tField(\'thumbnail\', \'upload\', autodelete=True),\n\t\t\t\tField(\'banner\', \'upload\', autodelete=True))\n\nfrom Media import image_generator\nbox = (200, 200)\nbannerbox = (450, 260)\nsite_media.thumbnail.compute = lambda row: image_generator(row.image_file, box, name="thumb")\nsite_media.banner.compute = lambda row: image_generator(row.image_file, bannerbox, name="banner")\n\ndb.define_table(\'image_key_words\',\n\t\t\t\tField(\'image_id\', \'reference image_library\'),\n\t\t\t\tField(\'key_word\', \'string\'))\n\ndb.define_table(\'script_library\',\n\t\t\t\tField(\'script_name\', \'string\', writable=True, label=\'Script Name\'),\n\t\t\t\tField(\'script_desc\', \'text\', writable=True, label=\'Script Description\'),\n\t\t\t\tField(\'script_version\', \'string\', writable=True, label=\'Script Version\'),\n\t\t\t\tField(\'created\', \'datetime\', writable=False, default=request.now),\n\t\t\t\tField(\'script_file\', \'upload\', autodelete=True))\n\ndb.define_table(\'style_library\',\n\t\t\t\tField(\'style_name\', \'string\', writable=True, label=\'Style Sheet Name\'),\n\t\t\t\tField(\'style_desc\', \'text\', writable=True, label=\'Style Sheet Description\'),\n\t\t\t\tField(\'style_version\', \'string\', writable=True, label=\'Style Sheet Version\'),\n\t\t\t\tField(\'created\', \'datetime\', writable=False, default=request.now),\n\t\t\t\tField(\'style_file\', \'upload\', autodelete=True))'
p7
sS'snapshot'
p8
(dp9
S'exception'
p10
(dp11
S'__hash__'
p12
S"<method-wrapper '__hash__' of exceptions.ImportError object>"
p13
sS'__setattr__'
p14
S"<method-wrapper '__setattr__' of exceptions.ImportError object>"
p15
sS'__reduce_ex__'
p16
S'<built-in method __reduce_ex__ of exceptions.ImportError object>'
p17
sS'__getslice__'
p18
S"<method-wrapper '__getslice__' of exceptions.ImportError object>"
p19
sS'__getitem__'
p20
S"<method-wrapper '__getitem__' of exceptions.ImportError object>"
p21
sS'__setstate__'
p22
S'<built-in method __setstate__ of exceptions.ImportError object>'
p23
sS'__reduce__'
p24
S'<built-in method __reduce__ of exceptions.ImportError object>'
p25
sS'__str__'
p26
S"<method-wrapper '__str__' of exceptions.ImportError object>"
p27
sS'__format__'
p28
S'<built-in method __format__ of exceptions.ImportError object>'
p29
sS'__getattribute__'
p30
S"<method-wrapper '__getattribute__' of exceptions.ImportError object>"
p31
sS'__class__'
p32
S"<type 'exceptions.ImportError'>"
p33
sS'__unicode__'
p34
S'<built-in method __unicode__ of exceptions.ImportError object>'
p35
sS'__delattr__'
p36
S"<method-wrapper '__delattr__' of exceptions.ImportError object>"
p37
sS'__subclasshook__'
p38
S'<built-in method __subclasshook__ of type object>'
p39
sS'__repr__'
p40
S"<method-wrapper '__repr__' of exceptions.ImportError object>"
p41
sS'args'
p42
S'("Cannot import module \'Image\'",)'
p43
sS'__dict__'
p44
S'{}'
p45
sS'__sizeof__'
p46
S'<built-in method __sizeof__ of exceptions.ImportError object>'
p47
sS'__doc__'
p48
S'"Import can\'t find module, or can\'t find name in module."'
p49
sS'__init__'
p50
S"<method-wrapper '__init__' of exceptions.ImportError object>"
p51
sS'__new__'
p52
S'<built-in method __new__ of type object>'
p53
ssS'evalue'
p54
S"Cannot import module 'Image'"
p55
sS'request'
p56
cgluon.html
XML_unpickle
p57
(S's\x9eg\x00\x00<div><table><tr><td style="font-weight:bold;vertical-align:top;">ajax</td><td style="vertical-align:top;">:</td><td><div>False</div></td></tr><tr><td style="font-weight:bold;vertical-align:top;">application</td><td style="vertical-align:top;">:</td><td><div>PlayersATX</div></td></tr><tr><td style="font-weight:bold;vertical-align:top;">args</td><td style="vertical-align:top;">:</td><td><div><table></table></div></td></tr><tr><td style="font-weight:bold;vertical-align:top;">cid</td><td style="vertical-align:top;">:</td><td><div>None</div></td></tr><tr><td style="font-weight:bold;vertical-align:top;">client</td><td style="vertical-align:top;">:</td><td><div>192.168.0.114</div></td></tr><tr><td style="font-weight:bold;vertical-align:top;">controller</td><td style="vertical-align:top;">:</td><td><div>default</div></td></tr><tr><td style="font-weight:bold;vertical-align:top;">cookies</td><td style="vertical-align:top;">:</td><td><div><table><tr><td style="font-weight:bold;vertical-align:top;">session_id_admin</td><td style="vertical-align:top;">:</td><td><div>192.168.0.114-93cf5129-bb95-4995-9553-079d51545dae<table><tr><td style="font-weight:bold;vertical-align:top;">comment</td><td style="vertical-align:top;">:</td><td><div></div></td></tr><tr><td style="font-weight:bold;vertical-align:top;">domain</td><td style="vertical-align:top;">:</td><td><div></div></td></tr><tr><td style="font-weight:bold;vertical-align:top;">expires</td><td style="vertical-align:top;">:</td><td><div></div></td></tr><tr><td style="font-weight:bold;vertical-align:top;">httponly</td><td style="vertical-align:top;">:</td><td><div></div></td></tr><tr><td style="font-weight:bold;vertical-align:top;">max-age</td><td style="vertical-align:top;">:</td><td><div></div></td></tr><tr><td style="font-weight:bold;vertical-align:top;">path</td><td style="vertical-align:top;">:</td><td><div></div></td></tr><tr><td style="font-weight:bold;vertical-align:top;">secure</td><td style="vertical-align:top;">:</td><td><div></div></td></tr><tr><td style="font-weight:bold;vertical-align:top;">version</td><td style="vertical-align:top;">:</td><td><div></div></td></tr></table></div></td></tr><tr><td style="font-weight:bold;vertical-align:top;">session_id_s4z4g4</td><td style="vertical-align:top;">:</td><td><div>192.168.0.114-2e74bebe-b706-499c-b803-b2b1d4bc036a<table><tr><td style="font-weight:bold;vertical-align:top;">comment</td><td style="vertical-align:top;">:</td><td><div></div></td></tr><tr><td style="font-weight:bold;vertical-align:top;">domain</td><td style="vertical-align:top;">:</td><td><div></div></td></tr><tr><td style="font-weight:bold;vertical-align:top;">expires</td><td style="vertical-align:top;">:</td><td><div></div></td></tr><tr><td style="font-weight:bold;vertical-align:top;">httponly</td><td style="vertical-align:top;">:</td><td><div></div></td></tr><tr><td style="font-weight:bold;vertical-align:top;">max-age</td><td style="vertical-align:top;">:</td><td><div></div></td></tr><tr><td style="font-weight:bold;vertical-align:top;">path</td><td style="vertical-align:top;">:</td><td><div></div></td></tr><tr><td style="font-weight:bold;vertical-align:top;">secure</td><td style="vertical-align:top;">:</td><td><div></div></td></tr><tr><td style="font-weight:bold;vertical-align:top;">version</td><td style="vertical-align:top;">:</td><td><div></div></td></tr></table></div></td></tr><tr><td style="font-weight:bold;vertical-align:top;">session_id_welcome</td><td style="vertical-align:top;">:</td><td><div>192.168.0.114-d400a12f-8312-4a59-a629-f0db8a177962<table><tr><td style="font-weight:bold;vertical-align:top;">comment</td><td style="vertical-align:top;">:</td><td><div></div></td></tr><tr><td style="font-weight:bold;vertical-align:top;">domain</td><td style="vertical-align:top;">:</td><td><div></div></td></tr><tr><td style="font-weight:bold;vertical-align:top;">expires</td><td style="vertical-align:top;">:</td><td><div></div></td></tr><tr><td style="font-weight:bold;vertical-align:top;">httponly</td><td style="vertical-align:top;">:</td><td><div></div></td></tr><tr><td style="font-weight:bold;vertical-align:top;">max-age</td><td style="vertical-align:top;">:</td><td><div></div></td></tr><tr><td style="font-weight:bold;vertical-align:top;">path</td><td style="vertical-align:top;">:</td><td><div></div></td></tr><tr><td style="font-weight:bold;vertical-align:top;">secure</td><td style="vertical-align:top;">:</td><td><div></div></td></tr><tr><td style="font-weight:bold;vertical-align:top;">version</td><td style="vertical-align:top;">:</td><td><div></div></td></tr></table></div></td></tr></table></div></td></tr><tr><td style="font-weight:bold;vertical-align:top;">env</td><td style="vertical-align:top;">:</td><td><div><table><tr><td style="font-weight:bold;vertical-align:top;">COMSPEC</td><td style="vertical-align:top;">:</td><td><div>C:\\Windows\\system32\\cmd.exe</div></td></tr><tr><td style="font-weight:bold;vertical-align:top;">DOCUMENT_ROOT</td><td style="vertical-align:top;">:</td><td><div>C:/Syzygy/web2py/applications</div></td></tr><tr><td style="font-weight:bold;vertical-align:top;">GATEWAY_INTERFACE</td><td style="vertical-align:top;">:</td><td><div>CGI/1.1</div></td></tr><tr><td style="font-weight:bold;vertical-align:top;">HTTPS</td><td style="vertical-align:top;">:</td><td><div>1</div></td></tr><tr><td style="font-weight:bold;vertical-align:top;">HTTP_ACCEPT</td><td style="vertical-align:top;">:</td><td><div>text/html,application/xhtml+xml,application/xml;q=0.9,image/webp,*/*;q=0.8</div></td></tr><tr><td style="font-weight:bold;vertical-align:top;">HTTP_ACCEPT_ENCODING</td><td style="vertical-align:top;">:</td><td><div>gzip, deflate, sdch</div></td></tr><tr><td style="font-weight:bold;vertical-align:top;">HTTP_ACCEPT_LANGUAGE</td><td style="vertical-align:top;">:</td><td><div>en-US,en;q=0.8</div></td></tr><tr><td style="font-weight:bold;vertical-align:top;">HTTP_CONNECTION</td><td style="vertical-align:top;">:</td><td><div>keep-alive</div></td></tr><tr><td style="font-weight:bold;vertical-align:top;">HTTP_COOKIE</td><td style="vertical-align:top;">:</td><td><div>session_id_welcome=192.168.0.114-d400a12f-8312-4a59-a629-f0db8a177962; session_id_admin=192.168.0.114-93cf5129-bb95-4995-9553-079d51545dae; session_id_s4z4g4=192.168.0.114-2e74bebe-b706-499c-b803-b2b1d4bc036a</div></td></tr><tr><td style="font-weight:bold;vertical-align:top;">HTTP_HOST</td><td style="vertical-align:top;">:</td><td><div>mike-pc</div></td></tr><tr><td style="font-weight:bold;vertical-align:top;">HTTP_REFERER</td><td style="vertical-align:top;">:</td><td><div>https://mike-pc/s4z4g4/default/site</div></td></tr><tr><td style="font-weight:bold;vertical-align:top;">HTTP_USER_AGENT</td><td style="vertical-align:top;">:</td><td><div>Mozilla/5.0 (Windows NT 6.1; WOW64) AppleWebKit/537.36 (KHTML, like Gecko) Chrome/41.0.2272.101 Safari/537.36</div></td></tr><tr><td style="font-weight:bold;vertical-align:top;">PATHEXT</td><td style="vertical-align:top;">:</td><td><div>.COM;.EXE;.BAT;.CMD;.VBS;.VBE;.JS;.JSE;.WSF;.WSH;.MSC</div></td></tr><tr><td style="font-weight:bold;vertical-align:top;">PATH_INFO</td><td style="vertical-align:top;">:</td><td><div>/PlayersATX/default/index</div></td></tr><tr><td style="font-weight:bold;vertical-align:top;">PATH_TRANSLATED</td><td style="vertical-align:top;">:</td><td><div>C:\\Syzygy\\web2py\\wsgihandler.py\\PlayersATX\\default\\index</div></td></tr><tr><td style="font-weight:bold;vertical-align:top;">QUERY_STRING</td><td style="vertical-align:top;">:</td><td><div></div></td></tr><tr><td style="font-weight:bold;vertical-align:top;">REMOTE_ADDR</td><td style="vertical-align:top;">:</td><td><div>192.168.0.114</div></td></tr><tr><td style="font-weight:bold;vertical-align:top;">REMOTE_PORT</td><td style="vertical-align:top;">:</td><td><div>59727</div></td></tr><tr><td style="font-weight:bold;vertical-align:top;">REQUEST_METHOD</td><td style="vertical-align:top;">:</td><td><div>GET</div></td></tr><tr><td style="font-weight:bold;vertical-align:top;">REQUEST_URI</td><td style="vertical-align:top;">:</td><td><div>/PlayersATX/default/index</div></td></tr><tr><td style="font-weight:bold;vertical-align:top;">SCRIPT_FILENAME</td><td style="vertical-align:top;">:</td><td><div>C:/Syzygy/web2py/wsgihandler.py</div></td></tr><tr><td style="font-weight:bold;vertical-align:top;">SCRIPT_NAME</td><td style="vertical-align:top;">:</td><td><div></div></td></tr><tr><td style="font-weight:bold;vertical-align:top;">SERVER_ADDR</td><td style="vertical-align:top;">:</td><td><div>192.168.0.114</div></td></tr><tr><td style="font-weight:bold;vertical-align:top;">SERVER_ADMIN</td><td style="vertical-align:top;">:</td><td><div>michael.fail@gmail.com</div></td></tr><tr><td style="font-weight:bold;vertical-align:top;">SERVER_NAME</td><td style="vertical-align:top;">:</td><td><div>mike-pc</div></td></tr><tr><td style="font-weight:bold;vertical-align:top;">SERVER_PORT</td><td style="vertical-align:top;">:</td><td><div>443</div></td></tr><tr><td style="font-weight:bold;vertical-align:top;">SERVER_PROTOCOL</td><td style="vertical-align:top;">:</td><td><div>HTTP/1.1</div></td></tr><tr><td style="font-weight:bold;vertical-align:top;">SERVER_SIGNATURE</td><td style="vertical-align:top;">:</td><td><div></div></td></tr><tr><td style="font-weight:bold;vertical-align:top;">SERVER_SOFTWARE</td><td style="vertical-align:top;">:</td><td><div>Apache/2.2.22 (Win32) mod_wsgi/3.3 Python/2.7.9 mod_ssl/2.2.22 OpenSSL/0.9.8t</div></td></tr><tr><td style="font-weight:bold;vertical-align:top;">SSL_TLS_SNI</td><td style="vertical-align:top;">:</td><td><div>mike-pc</div></td></tr><tr><td style="font-weight:bold;vertical-align:top;">SystemRoot</td><td style="vertical-align:top;">:</td><td><div>C:\\Windows</div></td></tr><tr><td style="font-weight:bold;vertical-align:top;">WINDIR</td><td style="vertical-align:top;">:</td><td><div>C:\\Windows</div></td></tr><tr><td style="font-weight:bold;vertical-align:top;">app_folders</td><td style="vertical-align:top;">:</td><td><div>set([&#x27;C:\\\\Syzygy\\\\web2py\\\\applications\\\\PlayersATX\\\\&#x27;, &#x27;C:\\\\Syzygy\\\\web2py\\\\applications\\\\s4z4g4\\\\&#x27;])</div></td></tr><tr><td style="font-weight:bold;vertical-align:top;">applications_parent</td><td style="vertical-align:top;">:</td><td><div>C:\\Syzygy\\web2py</div></td></tr><tr><td style="font-weight:bold;vertical-align:top;">comspec</td><td style="vertical-align:top;">:</td><td><div>C:\\Windows\\system32\\cmd.exe</div></td></tr><tr><td style="font-weight:bold;vertical-align:top;">db_sessions</td><td style="vertical-align:top;">:</td><td><div>set([])</div></td></tr><tr><td style="font-weight:bold;vertical-align:top;">debugging</td><td style="vertical-align:top;">:</td><td><div>False</div></td></tr><tr><td style="font-weight:bold;vertical-align:top;">document_root</td><td style="vertical-align:top;">:</td><td><div>C:/Syzygy/web2py/applications</div></td></tr><tr><td style="font-weight:bold;vertical-align:top;">gateway_interface</td><td style="vertical-align:top;">:</td><td><div>CGI/1.1</div></td></tr><tr><td style="font-weight:bold;vertical-align:top;">gluon_parent</td><td style="vertical-align:top;">:</td><td><div>C:\\Syzygy\\web2py</div></td></tr><tr><td style="font-weight:bold;vertical-align:top;">http_accept</td><td style="vertical-align:top;">:</td><td><div>text/html,application/xhtml+xml,application/xml;q=0.9,image/webp,*/*;q=0.8</div></td></tr><tr><td style="font-weight:bold;vertical-align:top;">http_accept_encoding</td><td style="vertical-align:top;">:</td><td><div>gzip, deflate, sdch</div></td></tr><tr><td style="font-weight:bold;vertical-align:top;">http_accept_language</td><td style="vertical-align:top;">:</td><td><div>en-US,en;q=0.8</div></td></tr><tr><td style="font-weight:bold;vertical-align:top;">http_connection</td><td style="vertical-align:top;">:</td><td><div>keep-alive</div></td></tr><tr><td style="font-weight:bold;vertical-align:top;">http_cookie</td><td style="vertical-align:top;">:</td><td><div>session_id_welcome=192.168.0.114-d400a12f-8312-4a59-a629-f0db8a177962; session_id_admin=192.168.0.114-93cf5129-bb95-4995-9553-079d51545dae; session_id_s4z4g4=192.168.0.114-2e74bebe-b706-499c-b803-b2b1d4bc036a</div></td></tr><tr><td style="font-weight:bold;vertical-align:top;">http_host</td><td style="vertical-align:top;">:</td><td><div>mike-pc</div></td></tr><tr><td style="font-weight:bold;vertical-align:top;">http_referer</td><td style="vertical-align:top;">:</td><td><div>https://mike-pc/s4z4g4/default/site</div></td></tr><tr><td style="font-weight:bold;vertical-align:top;">http_user_agent</td><td style="vertical-align:top;">:</td><td><div>Mozilla/5.0 (Windows NT 6.1; WOW64) AppleWebKit/537.36 (KHTML, like Gecko) Chrome/41.0.2272.101 Safari/537.36</div></td></tr><tr><td style="font-weight:bold;vertical-align:top;">https</td><td style="vertical-align:top;">:</td><td><div>1</div></td></tr><tr><td style="font-weight:bold;vertical-align:top;">is_jython</td><td style="vertical-align:top;">:</td><td><div>False</div></td></tr><tr><td style="font-weight:bold;vertical-align:top;">is_pypy</td><td style="vertical-align:top;">:</td><td><div>False</div></td></tr><tr><td style="font-weight:bold;vertical-align:top;">is_source</td><td style="vertical-align:top;">:</td><td><div>True</div></td></tr><tr><td style="font-weight:bold;vertical-align:top;">local_hosts</td><td style="vertical-align:top;">:</td><td><div><table><tr><td><div>fe80::20b1:6f96:4cd1:cd0a%11</div></td></tr><tr><td><div>Mike-PC</div></td></tr><tr><td><div>2001:0:9d38:90d7:1092:366a:b74e:8fcf</div></td></tr><tr><td><div>::ffff:127.0.0.1</div></td></tr><tr><td><div>::1</div></td></tr><tr><td><div>fe80::1092:366a:b74e:8fcf%13</div></td></tr><tr><td><div>192.168.0.114</div></td></tr><tr><td><div>mike-pc</div></td></tr><tr><td><div>127.0.0.1</div></td></tr></table></div></td></tr><tr><td style="font-weight:bold;vertical-align:top;">mod_wsgi.application_group</td><td style="vertical-align:top;">:</td><td><div>Mike-PC|</div></td></tr><tr><td style="font-weight:bold;vertical-align:top;">mod_wsgi.callable_object</td><td style="vertical-align:top;">:</td><td><div>application</div></td></tr><tr><td style="font-weight:bold;vertical-align:top;">mod_wsgi.handler_script</td><td style="vertical-align:top;">:</td><td><div></div></td></tr><tr><td style="font-weight:bold;vertical-align:top;">mod_wsgi.input_chunked</td><td style="vertical-align:top;">:</td><td><div>0</div></td></tr><tr><td style="font-weight:bold;vertical-align:top;">mod_wsgi.process_group</td><td style="vertical-align:top;">:</td><td><div></div></td></tr><tr><td style="font-weight:bold;vertical-align:top;">mod_wsgi.request_handler</td><td style="vertical-align:top;">:</td><td><div>wsgi-script</div></td></tr><tr><td style="font-weight:bold;vertical-align:top;">mod_wsgi.script_reloading</td><td style="vertical-align:top;">:</td><td><div>1</div></td></tr><tr><td style="font-weight:bold;vertical-align:top;">mod_wsgi.version</td><td style="vertical-align:top;">:</td><td><div><table><tr><td><div>3</div></td></tr><tr><td><div>3</div></td></tr></table></div></td></tr><tr><td style="font-weight:bold;vertical-align:top;">mod_wsgi_application_group</td><td style="vertical-align:top;">:</td><td><div>Mike-PC|</div></td></tr><tr><td style="font-weight:bold;vertical-align:top;">mod_wsgi_callable_object</td><td style="vertical-align:top;">:</td><td><div>application</div></td></tr><tr><td style="font-weight:bold;vertical-align:top;">mod_wsgi_handler_script</td><td style="vertical-align:top;">:</td><td><div></div></td></tr><tr><td style="font-weight:bold;vertical-align:top;">mod_wsgi_input_chunked</td><td style="vertical-align:top;">:</td><td><div>0</div></td></tr><tr><td style="font-weight:bold;vertical-align:top;">mod_wsgi_process_group</td><td style="vertical-align:top;">:</td><td><div></div></td></tr><tr><td style="font-weight:bold;vertical-align:top;">mod_wsgi_request_handler</td><td style="vertical-align:top;">:</td><td><div>wsgi-script</div></td></tr><tr><td style="font-weight:bold;vertical-align:top;">mod_wsgi_script_reloading</td><td style="vertical-align:top;">:</td><td><div>1</div></td></tr><tr><td style="font-weight:bold;vertical-align:top;">mod_wsgi_version</td><td style="vertical-align:top;">:</td><td><div><table><tr><td><div>3</div></td></tr><tr><td><div>3</div></td></tr></table></div></td></tr><tr><td style="font-weight:bold;vertical-align:top;">path_info</td><td style="vertical-align:top;">:</td><td><div>/PlayersATX/default/index</div></td></tr><tr><td style="font-weight:bold;vertical-align:top;">path_translated</td><td style="vertical-align:top;">:</td><td><div>C:\\Syzygy\\web2py\\wsgihandler.py\\PlayersATX\\default\\index</div></td></tr><tr><td style="font-weight:bold;vertical-align:top;">pathext</td><td style="vertical-align:top;">:</td><td><div>.COM;.EXE;.BAT;.CMD;.VBS;.VBE;.JS;.JSE;.WSF;.WSH;.MSC</div></td></tr><tr><td style="font-weight:bold;vertical-align:top;">query_string</td><td style="vertical-align:top;">:</td><td><div></div></td></tr><tr><td style="font-weight:bold;vertical-align:top;">remote_addr</td><td style="vertical-align:top;">:</td><td><div>192.168.0.114</div></td></tr><tr><td style="font-weight:bold;vertical-align:top;">remote_port</td><td style="vertical-align:top;">:</td><td><div>59727</div></td></tr><tr><td style="font-weight:bold;vertical-align:top;">request_method</td><td style="vertical-align:top;">:</td><td><div>GET</div></td></tr><tr><td style="font-weight:bold;vertical-align:top;">request_uri</td><td style="vertical-align:top;">:</td><td><div>/PlayersATX/default/index</div></td></tr><tr><td style="font-weight:bold;vertical-align:top;">script_filename</td><td style="vertical-align:top;">:</td><td><div>C:/Syzygy/web2py/wsgihandler.py</div></td></tr><tr><td style="font-weight:bold;vertical-align:top;">script_name</td><td style="vertical-align:top;">:</td><td><div></div></td></tr><tr><td style="font-weight:bold;vertical-align:top;">server_addr</td><td style="vertical-align:top;">:</td><td><div>192.168.0.114</div></td></tr><tr><td style="font-weight:bold;vertical-align:top;">server_admin</td><td style="vertical-align:top;">:</td><td><div>michael.fail@gmail.com</div></td></tr><tr><td style="font-weight:bold;vertical-align:top;">server_name</td><td style="vertical-align:top;">:</td><td><div>mike-pc</div></td></tr><tr><td style="font-weight:bold;vertical-align:top;">server_port</td><td style="vertical-align:top;">:</td><td><div>443</div></td></tr><tr><td style="font-weight:bold;vertical-align:top;">server_protocol</td><td style="vertical-align:top;">:</td><td><div>HTTP/1.1</div></td></tr><tr><td style="font-weight:bold;vertical-align:top;">server_signature</td><td style="vertical-align:top;">:</td><td><div></div></td></tr><tr><td style="font-weight:bold;vertical-align:top;">server_software</td><td style="vertical-align:top;">:</td><td><div>Apache/2.2.22 (Win32) mod_wsgi/3.3 Python/2.7.9 mod_ssl/2.2.22 OpenSSL/0.9.8t</div></td></tr><tr><td style="font-weight:bold;vertical-align:top;">ssl_tls_sni</td><td style="vertical-align:top;">:</td><td><div>mike-pc</div></td></tr><tr><td style="font-weight:bold;vertical-align:top;">systemroot</td><td style="vertical-align:top;">:</td><td><div>C:\\Windows</div></td></tr><tr><td style="font-weight:bold;vertical-align:top;">web2py_path</td><td style="vertical-align:top;">:</td><td><div>C:\\Syzygy\\web2py</div></td></tr><tr><td style="font-weight:bold;vertical-align:top;">web2py_version</td><td style="vertical-align:top;">:</td><td><div>2.9.5-stable+timestamp.2014.03.16.02.35.39</div></td></tr><tr><td style="font-weight:bold;vertical-align:top;">windir</td><td style="vertical-align:top;">:</td><td><div>C:\\Windows</div></td></tr><tr><td style="font-weight:bold;vertical-align:top;">wsgi.errors</td><td style="vertical-align:top;">:</td><td><div>&lt;mod_wsgi.Log object at 0x0664C160&gt;</div></td></tr><tr><td style="font-weight:bold;vertical-align:top;">wsgi.file_wrapper</td><td style="vertical-align:top;">:</td><td><div>&lt;built-in method file_wrapper of mod_wsgi.Adapter object at 0x05A999F8&gt;</div></td></tr><tr><td style="font-weight:bold;vertical-align:top;">wsgi.input</td><td style="vertical-align:top;">:</td><td><div>&lt;mod_wsgi.Input object at 0x06707B38&gt;</div></td></tr><tr><td style="font-weight:bold;vertical-align:top;">wsgi.multiprocess</td><td style="vertical-align:top;">:</td><td><div>False</div></td></tr><tr><td style="font-weight:bold;vertical-align:top;">wsgi.multithread</td><td style="vertical-align:top;">:</td><td><div>True</div></td></tr><tr><td style="font-weight:bold;vertical-align:top;">wsgi.run_once</td><td style="vertical-align:top;">:</td><td><div>False</div></td></tr><tr><td style="font-weight:bold;vertical-align:top;">wsgi.url_scheme</td><td style="vertical-align:top;">:</td><td><div>https</div></td></tr><tr><td style="font-weight:bold;vertical-align:top;">wsgi.version</td><td style="vertical-align:top;">:</td><td><div><table><tr><td><div>1</div></td></tr><tr><td><div>1</div></td></tr></table></div></td></tr><tr><td style="font-weight:bold;vertical-align:top;">wsgi_errors</td><td style="vertical-align:top;">:</td><td><div>&lt;mod_wsgi.Log object at 0x0664C160&gt;</div></td></tr><tr><td style="font-weight:bold;vertical-align:top;">wsgi_file_wrapper</td><td style="vertical-align:top;">:</td><td><div>&lt;built-in method file_wrapper of mod_wsgi.Adapter object at 0x05A999F8&gt;</div></td></tr><tr><td style="font-weight:bold;vertical-align:top;">wsgi_input</td><td style="vertical-align:top;">:</td><td><div>&lt;mod_wsgi.Input object at 0x06707B38&gt;</div></td></tr><tr><td style="font-weight:bold;vertical-align:top;">wsgi_multiprocess</td><td style="vertical-align:top;">:</td><td><div>False</div></td></tr><tr><td style="font-weight:bold;vertical-align:top;">wsgi_multithread</td><td style="vertical-align:top;">:</td><td><div>True</div></td></tr><tr><td style="font-weight:bold;vertical-align:top;">wsgi_run_once</td><td style="vertical-align:top;">:</td><td><div>False</div></td></tr><tr><td style="font-weight:bold;vertical-align:top;">wsgi_url_scheme</td><td style="vertical-align:top;">:</td><td><div>https</div></td></tr><tr><td style="font-weight:bold;vertical-align:top;">wsgi_version</td><td style="vertical-align:top;">:</td><td><div><table><tr><td><div>1</div></td></tr><tr><td><div>1</div></td></tr></table></div></td></tr></table></div></td></tr><tr><td style="font-weight:bold;vertical-align:top;">extension</td><td style="vertical-align:top;">:</td><td><div>html</div></td></tr><tr><td style="font-weight:bold;vertical-align:top;">folder</td><td style="vertical-align:top;">:</td><td><div>C:\\Syzygy\\web2py\\applications\\PlayersATX\\</div></td></tr><tr><td style="font-weight:bold;vertical-align:top;">function</td><td style="vertical-align:top;">:</td><td><div>index</div></td></tr><tr><td style="font-weight:bold;vertical-align:top;">global_settings</td><td style="vertical-align:top;">:</td><td><div><table><tr><td style="font-weight:bold;vertical-align:top;">app_folders</td><td style="vertical-align:top;">:</td><td><div>set([&#x27;C:\\\\Syzygy\\\\web2py\\\\applications\\\\PlayersATX\\\\&#x27;, &#x27;C:\\\\Syzygy\\\\web2py\\\\applications\\\\s4z4g4\\\\&#x27;])</div></td></tr><tr><td style="font-weight:bold;vertical-align:top;">applications_parent</td><td style="vertical-align:top;">:</td><td><div>C:\\Syzygy\\web2py</div></td></tr><tr><td style="font-weight:bold;vertical-align:top;">db_sessions</td><td style="vertical-align:top;">:</td><td><div>set([])</div></td></tr><tr><td style="font-weight:bold;vertical-align:top;">debugging</td><td style="vertical-align:top;">:</td><td><div>False</div></td></tr><tr><td style="font-weight:bold;vertical-align:top;">gluon_parent</td><td style="vertical-align:top;">:</td><td><div>C:\\Syzygy\\web2py</div></td></tr><tr><td style="font-weight:bold;vertical-align:top;">is_jython</td><td style="vertical-align:top;">:</td><td><div>False</div></td></tr><tr><td style="font-weight:bold;vertical-align:top;">is_pypy</td><td style="vertical-align:top;">:</td><td><div>False</div></td></tr><tr><td style="font-weight:bold;vertical-align:top;">is_source</td><td style="vertical-align:top;">:</td><td><div>True</div></td></tr><tr><td style="font-weight:bold;vertical-align:top;">local_hosts</td><td style="vertical-align:top;">:</td><td><div><table><tr><td><div>fe80::20b1:6f96:4cd1:cd0a%11</div></td></tr><tr><td><div>Mike-PC</div></td></tr><tr><td><div>2001:0:9d38:90d7:1092:366a:b74e:8fcf</div></td></tr><tr><td><div>::ffff:127.0.0.1</div></td></tr><tr><td><div>::1</div></td></tr><tr><td><div>fe80::1092:366a:b74e:8fcf%13</div></td></tr><tr><td><div>192.168.0.114</div></td></tr><tr><td><div>mike-pc</div></td></tr><tr><td><div>127.0.0.1</div></td></tr></table></div></td></tr><tr><td style="font-weight:bold;vertical-align:top;">web2py_version</td><td style="vertical-align:top;">:</td><td><div>2.9.5-stable+timestamp.2014.03.16.02.35.39</div></td></tr></table></div></td></tr><tr><td style="font-weight:bold;vertical-align:top;">is_https</td><td style="vertical-align:top;">:</td><td><div>True</div></td></tr><tr><td style="font-weight:bold;vertical-align:top;">is_local</td><td style="vertical-align:top;">:</td><td><div>True</div></td></tr><tr><td style="font-weight:bold;vertical-align:top;">is_restful</td><td style="vertical-align:top;">:</td><td><div>False</div></td></tr><tr><td style="font-weight:bold;vertical-align:top;">now</td><td style="vertical-align:top;">:</td><td><div>datetime.datetime(2015, 3, 22, 15, 0, 8, 639000)</div></td></tr><tr><td style="font-weight:bold;vertical-align:top;">raw_args</td><td style="vertical-align:top;">:</td><td><div></div></td></tr><tr><td style="font-weight:bold;vertical-align:top;">raw_extension</td><td style="vertical-align:top;">:</td><td><div>None</div></td></tr><tr><td style="font-weight:bold;vertical-align:top;">url</td><td style="vertical-align:top;">:</td><td><div>/PlayersATX/default/index</div></td></tr><tr><td style="font-weight:bold;vertical-align:top;">utcnow</td><td style="vertical-align:top;">:</td><td><div>datetime.datetime(2015, 3, 22, 20, 0, 8, 639000)</div></td></tr><tr><td style="font-weight:bold;vertical-align:top;">uuid</td><td style="vertical-align:top;">:</td><td><div>PlayersATX/192.168.0.114.2015-03-22.15-00-08.e3087327-7d24-43ed-a422-2d802e8aa7a4</div></td></tr><tr><td style="font-weight:bold;vertical-align:top;">wsgi</td><td style="vertical-align:top;">:</td><td><div>&lt;gluon.main.LazyWSGI object at 0x06864870&gt;</div></td></tr></table></div>'
tRp58
sS'frames'
p59
(lp60
(dp61
S'file'
p62
S'C:\\Syzygy\\web2py\\gluon\\restricted.py'
p63
sS'dump'
p64
(dp65
S'environment'
p66
S"{'A': <class 'gluon.html.A'>, 'ANY_OF': <class 'gluon.validators.ANY_OF'>, 'Auth': <class 'gluon.tools.Auth'>, 'B': <class 'gluon.html.B'>, 'BEAUTIFY': <class 'gluon.html.BEAUTIFY'>, 'BODY': <class 'gluon.html.BODY'>, 'BR': <class 'gluon.html.BR'>, 'BUTTON': <class 'gluon.html.BUTTON'>, 'CAT': <class 'gluon.html.CAT'>, 'CENTER': <class 'gluon.html.CENTER'>, ...}"
p67
sS'ccode'
p68
S'<code object <module> at 06874F98, file "C:\\Syzy...ations\\PlayersATX\\models\\db_settings.py", line 3>'
p69
ssS'lnum'
p70
I220
sS'lines'
p71
(dp72
I224
S'        # do not encapsulate (obfuscate) the original RestrictedError'
p73
sI215
S'    try:'
p74
sI216
S'        if isinstance(code, types.CodeType):'
p75
sI217
S'            ccode = code'
p76
sI218
S'        else:'
p77
sI219
S'            ccode = compile2(code, layer)'
p78
sI220
S'        exec ccode in environment'
p79
sI221
S'    except HTTP:'
p80
sI222
S'        raise'
p81
sI223
S'    except RestrictedError:'
p82
ssS'call'
p83
S'(code="# coding: utf8\\n\\ndb.define_table(\'basic_site\',\\n\\t\\t...\\t\\tField(\'style_file\', \'upload\', autodelete=True))", environment={\'A\': <class \'gluon.html.A\'>, \'ANY_OF\': <class \'gluon.validators.ANY_OF\'>, \'Auth\': <class \'gluon.tools.Auth\'>, \'B\': <class \'gluon.html.B\'>, \'BEAUTIFY\': <class \'gluon.html.BEAUTIFY\'>, \'BODY\': <class \'gluon.html.BODY\'>, \'BR\': <class \'gluon.html.BR\'>, \'BUTTON\': <class \'gluon.html.BUTTON\'>, \'CAT\': <class \'gluon.html.CAT\'>, \'CENTER\': <class \'gluon.html.CENTER\'>, ...}, layer=r\'C:\\Syzygy\\web2py\\applications\\PlayersATX\\models\\db_settings.py\')'
p84
sS'func'
p85
S'restricted'
p86
sa(dp87
g62
S'C:\\Syzygy\\web2py\\applications\\PlayersATX\\models\\db_settings.py'
p88
sg64
(dp89
S'Media'
p90
S'undefined'
p91
sS'image_generator'
p92
g91
ssg70
I69
sg71
(dp93
I64
S"\t\t\t\tField('modified', 'datetime', writable=False, default=request.now, update=request.now),"
p94
sI65
S'\t\t\t\tField(\'image_file\', \'upload\', requires=IS_IMAGE(extensions=(\'jpeg\', \'png\')), autodelete=True, label=\'Image\', comment="Jpegs and PNGs only please"),'
p95
sI66
S"\t\t\t\tField('thumbnail', 'upload', autodelete=True),"
p96
sI67
S"\t\t\t\tField('banner', 'upload', autodelete=True))"
p97
sI68
S''
sI69
S'from Media import image_generator'
p98
sI70
S'box = (200, 200)'
p99
sI71
S'bannerbox = (450, 260)'
p100
sI72
S'site_media.thumbnail.compute = lambda row: image_generator(row.image_file, box, name="thumb")'
p101
sI73
S'site_media.banner.compute = lambda row: image_generator(row.image_file, bannerbox, name="banner")'
p102
ssg83
S'()'
p103
sg85
S'<module>'
p104
sa(dp105
g62
S'C:\\Syzygy\\web2py\\gluon\\custom_import.py'
p106
sg64
(dp107
S'fromlist'
p108
S"('image_generator',)"
p109
sS'level'
p110
S'-1'
p111
sS'base_importer'
p112
S'<built-in function __import__>'
p113
sS'globals'
p114
S"{'A': <class 'gluon.html.A'>, 'ANY_OF': <class 'gluon.validators.ANY_OF'>, 'Auth': <class 'gluon.tools.Auth'>, 'B': <class 'gluon.html.B'>, 'BEAUTIFY': <class 'gluon.html.BEAUTIFY'>, 'BODY': <class 'gluon.html.BODY'>, 'BR': <class 'gluon.html.BR'>, 'BUTTON': <class 'gluon.html.BUTTON'>, 'CAT': <class 'gluon.html.CAT'>, 'CENTER': <class 'gluon.html.CENTER'>, ...}"
p115
sS'pname'
p116
S"'applications.PlayersATX.modules.Media'"
p117
sS'locals'
p118
S"{'A': <class 'gluon.html.A'>, 'ANY_OF': <class 'gluon.validators.ANY_OF'>, 'Auth': <class 'gluon.tools.Auth'>, 'B': <class 'gluon.html.B'>, 'BEAUTIFY': <class 'gluon.html.BEAUTIFY'>, 'BODY': <class 'gluon.html.BODY'>, 'BR': <class 'gluon.html.BR'>, 'BUTTON': <class 'gluon.html.BUTTON'>, 'CAT': <class 'gluon.html.CAT'>, 'CENTER': <class 'gluon.html.CENTER'>, ...}"
p119
ssg70
I92
sg71
(dp120
I96
S'                return NATIVE_IMPORTER(name, globals, locals, fromlist, level)'
p121
sI87
S'                        modules_prefix += "." + itemname'
p122
sI88
S'                    return result'
p123
sI89
S'                else:'
p124
sI90
S'                    # import like "from x import a, b, ..."'
p125
sI91
S'                    pname = modules_prefix + "." + name'
p126
sI92
S'                    return base_importer(pname, globals, locals, fromlist, level)'
p127
sI93
S'        except ImportError, e1:'
p128
sI94
S'            import_tb = sys.exc_info()[2]'
p129
sI95
S'            try:'
p130
ssg83
S"(name='Media', globals={'A': <class 'gluon.html.A'>, 'ANY_OF': <class 'gluon.validators.ANY_OF'>, 'Auth': <class 'gluon.tools.Auth'>, 'B': <class 'gluon.html.B'>, 'BEAUTIFY': <class 'gluon.html.BEAUTIFY'>, 'BODY': <class 'gluon.html.BODY'>, 'BR': <class 'gluon.html.BR'>, 'BUTTON': <class 'gluon.html.BUTTON'>, 'CAT': <class 'gluon.html.CAT'>, 'CENTER': <class 'gluon.html.CENTER'>, ...}, locals={'A': <class 'gluon.html.A'>, 'ANY_OF': <class 'gluon.validators.ANY_OF'>, 'Auth': <class 'gluon.tools.Auth'>, 'B': <class 'gluon.html.B'>, 'BEAUTIFY': <class 'gluon.html.BEAUTIFY'>, 'BODY': <class 'gluon.html.BODY'>, 'BR': <class 'gluon.html.BR'>, 'BUTTON': <class 'gluon.html.BUTTON'>, 'CAT': <class 'gluon.html.CAT'>, 'CENTER': <class 'gluon.html.CENTER'>, ...}, fromlist=('image_generator',), level=-1)"
p131
sg85
S'custom_importer'
p132
sa(dp133
g62
S'C:\\Syzygy\\web2py\\applications\\PlayersATX\\modules\\Media.py'
p134
sg64
(dp135
S'ImageOps'
p136
g91
sS'Image'
p137
g91
ssg70
I9
sg71
(dp138
I4
S''
sI5
S'import os'
p139
sI6
S'try:'
p140
sI7
S'\tfrom PIL import Image, ImageOps'
p141
sI8
S'except:'
p142
sI9
S'\timport Image, ImageOps'
p143
sI10
S''
sI11
S'def image_generator(file_name, box, fit=True, name=""):'
p144
sI12
S"\t'''Downsample the image."
p145
sI13
S'\t@param img: Image - an Image-object'
p146
ssg83
S'()'
p147
sg85
g104
sa(dp148
g62
S'C:\\Syzygy\\web2py\\gluon\\custom_import.py'
p149
sg64
(dp150
S'builtinstr'
p151
S"<type 'str'>"
p152
sS'builtinImportError'
p153
S"<type 'exceptions.ImportError'>"
p154
sS'e'
S"KeyError('Image',)"
p155
ssg70
I86
sg71
(dp156
I81
S'                        new_mod = base_importer('
p157
sI82
S'                            modules_prefix, globals, locals, [itemname], level)'
p158
sI83
S'                        try:'
p159
sI84
S'                            result = result or new_mod.__dict__[itemname]'
p160
sI85
S'                        except KeyError, e:'
p161
sI86
S"                            raise ImportError, 'Cannot import module %s' % str(e)"
p162
sI87
S'                        modules_prefix += "." + itemname'
p163
sI88
S'                    return result'
p164
sI89
S'                else:'
p165
sI90
S'                    # import like "from x import a, b, ..."'
p166
ssg83
S"(name='Image', globals={'A': None, 'B': None, 'BEAUTIFY': None, 'BODY': None, 'BR': None, 'CAT': None, 'CENTER': None, 'CLEANUP': None, 'CODE': None, 'CRYPT': None, ...}, locals={'A': None, 'B': None, 'BEAUTIFY': None, 'BODY': None, 'BR': None, 'CAT': None, 'CENTER': None, 'CLEANUP': None, 'CODE': None, 'CRYPT': None, ...}, fromlist=[], level=-1)"
p167
sg85
g132
sasS'pyver'
p168
S'Python 2.7.9: C:\\Program Files (x86)\\Apache Software Foundation\\Apache2.2\\bin\\httpd.exe (prefix: C:\\Python27)'
p169
sS'session'
p170
g57
(S's\x1a\x00\x00\x00<div><table></table></div>'
tRp171
sS'etype'
p172
S"<type 'exceptions.ImportError'>"
p173
sS'date'
p174
S'Sun Mar 22 15:00:09 2015'
p175
sS'response'
p176
g57
(S's\xb5\x15\x00\x00<div><table><tr><td style="font-weight:bold;vertical-align:top;">body</td><td style="vertical-align:top;">:</td><td><div>&lt;cStringIO.StringO object at 0x068646C0&gt;</div></td></tr><tr><td style="font-weight:bold;vertical-align:top;">cookies</td><td style="vertical-align:top;">:</td><td><div><table><tr><td style="font-weight:bold;vertical-align:top;">session_id_playersatx</td><td style="vertical-align:top;">:</td><td><div>192.168.0.114-aa968088-60ce-433f-9e5a-78fe1e5f9cad<table><tr><td style="font-weight:bold;vertical-align:top;">comment</td><td style="vertical-align:top;">:</td><td><div></div></td></tr><tr><td style="font-weight:bold;vertical-align:top;">domain</td><td style="vertical-align:top;">:</td><td><div></div></td></tr><tr><td style="font-weight:bold;vertical-align:top;">expires</td><td style="vertical-align:top;">:</td><td><div></div></td></tr><tr><td style="font-weight:bold;vertical-align:top;">httponly</td><td style="vertical-align:top;">:</td><td><div></div></td></tr><tr><td style="font-weight:bold;vertical-align:top;">max-age</td><td style="vertical-align:top;">:</td><td><div></div></td></tr><tr><td style="font-weight:bold;vertical-align:top;">path</td><td style="vertical-align:top;">:</td><td><div>/</div></td></tr><tr><td style="font-weight:bold;vertical-align:top;">secure</td><td style="vertical-align:top;">:</td><td><div></div></td></tr><tr><td style="font-weight:bold;vertical-align:top;">version</td><td style="vertical-align:top;">:</td><td><div></div></td></tr></table></div></td></tr></table></div></td></tr><tr><td style="font-weight:bold;vertical-align:top;">delimiters</td><td style="vertical-align:top;">:</td><td><div><table><tr><td><div>{{</div></td></tr><tr><td><div>}}</div></td></tr></table></div></td></tr><tr><td style="font-weight:bold;vertical-align:top;">files</td><td style="vertical-align:top;">:</td><td><div><table></table></div></td></tr><tr><td style="font-weight:bold;vertical-align:top;">flash</td><td style="vertical-align:top;">:</td><td><div></div></td></tr><tr><td style="font-weight:bold;vertical-align:top;">generic_patterns</td><td style="vertical-align:top;">:</td><td><div><table><tr><td><div>*</div></td></tr></table></div></td></tr><tr><td style="font-weight:bold;vertical-align:top;">headers</td><td style="vertical-align:top;">:</td><td><div><table><tr><td style="font-weight:bold;vertical-align:top;">X-Powered-By</td><td style="vertical-align:top;">:</td><td><div>web2py</div></td></tr></table></div></td></tr><tr><td style="font-weight:bold;vertical-align:top;">menu</td><td style="vertical-align:top;">:</td><td><div><table></table></div></td></tr><tr><td style="font-weight:bold;vertical-align:top;">meta</td><td style="vertical-align:top;">:</td><td><div><table></table></div></td></tr><tr><td style="font-weight:bold;vertical-align:top;">models_to_run</td><td style="vertical-align:top;">:</td><td><div><table><tr><td><div>^\\w+\\.py$</div></td></tr><tr><td><div>^default/\\w+\\.py$</div></td></tr><tr><td><div>^default/index/\\w+\\.py$</div></td></tr></table></div></td></tr><tr><td style="font-weight:bold;vertical-align:top;">postprocessing</td><td style="vertical-align:top;">:</td><td><div><table></table></div></td></tr><tr><td style="font-weight:bold;vertical-align:top;">session_client</td><td style="vertical-align:top;">:</td><td><div>192.168.0.114</div></td></tr><tr><td style="font-weight:bold;vertical-align:top;">session_cookie_compression_level</td><td style="vertical-align:top;">:</td><td><div>None</div></td></tr><tr><td style="font-weight:bold;vertical-align:top;">session_cookie_expires</td><td style="vertical-align:top;">:</td><td><div>None</div></td></tr><tr><td style="font-weight:bold;vertical-align:top;">session_cookie_key</td><td style="vertical-align:top;">:</td><td><div>None</div></td></tr><tr><td style="font-weight:bold;vertical-align:top;">session_data_name</td><td style="vertical-align:top;">:</td><td><div>session_data_playersatx</div></td></tr><tr><td style="font-weight:bold;vertical-align:top;">session_file</td><td style="vertical-align:top;">:</td><td><div>None</div></td></tr><tr><td style="font-weight:bold;vertical-align:top;">session_filename</td><td style="vertical-align:top;">:</td><td><div>C:\\Syzygy\\web2py\\applications\\PlayersATX\\sessions\\192.168.0.114-aa968088-60ce-433f-9e5a-78fe1e5f9cad</div></td></tr><tr><td style="font-weight:bold;vertical-align:top;">session_hash</td><td style="vertical-align:top;">:</td><td><div>106f4c22ca06cc343e42b73a0d8492f6</div></td></tr><tr><td style="font-weight:bold;vertical-align:top;">session_id</td><td style="vertical-align:top;">:</td><td><div>192.168.0.114-aa968088-60ce-433f-9e5a-78fe1e5f9cad</div></td></tr><tr><td style="font-weight:bold;vertical-align:top;">session_id_name</td><td style="vertical-align:top;">:</td><td><div>session_id_playersatx</div></td></tr><tr><td style="font-weight:bold;vertical-align:top;">session_masterapp</td><td style="vertical-align:top;">:</td><td><div>PlayersATX</div></td></tr><tr><td style="font-weight:bold;vertical-align:top;">session_new</td><td style="vertical-align:top;">:</td><td><div>True</div></td></tr><tr><td style="font-weight:bold;vertical-align:top;">session_storage_type</td><td style="vertical-align:top;">:</td><td><div>file</div></td></tr><tr><td style="font-weight:bold;vertical-align:top;">status</td><td style="vertical-align:top;">:</td><td><div>200</div></td></tr><tr><td style="font-weight:bold;vertical-align:top;">view</td><td style="vertical-align:top;">:</td><td><div>default/index.html</div></td></tr></table></div>'
tRp177
sS'locals'
p178
(dp179
S'fromlist'
p180
S'[]'
p181
sS'e'
S"KeyError('Image',)"
p182
sS'name'
p183
S"'Image'"
p184
sS'level'
p185
S'-1'
p186
sS'itemname'
p187
S"'Image'"
p188
sS'e3'
p189
S"ImportError('No module named Image',)"
p190
sS'base_importer'
p191
S'<built-in function __import__>'
p192
sS'globals'
p193
S"{'A': None, 'B': None, 'BEAUTIFY': None, 'BODY': None, 'BR': None, 'CAT': None, 'CENTER': None, 'CLEANUP': None, 'CODE': None, 'CRYPT': None, ...}"
p194
sS'result'
p195
S'None'
p196
sS'items'
p197
S"['C:', 'Syzygy', 'web2py', 'applications', 'PlayersATX']"
p198
sS'modules_prefix'
p199
S"'applications.PlayersATX.modules'"
p200
sS'new_mod'
p201
S"<module 'applications.PlayersATX.modules' from 'applications\\PlayersATX\\modules\\__init__.py'>"
p202
sS'e1'
p203
S'ImportError("Cannot import module \'Image\'",)'
p204
sS'import_tb'
p205
S'None'
p206
sg178
S"{'A': None, 'B': None, 'BEAUTIFY': None, 'BODY': None, 'BR': None, 'CAT': None, 'CENTER': None, 'CLEANUP': None, 'CODE': None, 'CRYPT': None, ...}"
p207
sS'oname'
p208
S"'Image'"
p209
sssS'traceback'
p210
S'Traceback (most recent call last):\n  File "C:\\Syzygy\\web2py\\gluon\\restricted.py", line 220, in restricted\n    exec ccode in environment\n  File "C:\\Syzygy\\web2py\\applications\\PlayersATX\\models\\db_settings.py", line 69, in <module>\n    from Media import image_generator\n  File "C:\\Syzygy\\web2py\\gluon\\custom_import.py", line 92, in custom_importer\n    return base_importer(pname, globals, locals, fromlist, level)\n  File "applications\\PlayersATX\\modules\\Media.py", line 9, in <module>\n    import Image, ImageOps\n  File "C:\\Syzygy\\web2py\\gluon\\custom_import.py", line 86, in custom_importer\n    raise ImportError, \'Cannot import module %s\' % str(e)\nImportError: Cannot import module \'Image\'\n'
p211
s.