(dp1
S'key_word'
p2
(dp3
S'length'
p4
I512
sS'unique'
p5
I00
sS'sortable'
p6
I3
sS'sql'
p7
S'VARCHAR(512)'
p8
sS'notnull'
p9
I00
sS'type'
p10
S'string'
p11
ssS'image_id'
p12
(dp13
g4
I512
sg5
I00
sg6
I2
sg7
S'INT, INDEX image_id__idx (image_id), FOREIGN KEY (image_id) REFERENCES image_library (id) ON DELETE CASCADE'
p14
sg9
I00
sg10
S'reference image_library'
p15
ssS'id'
p16
(dp17
g4
I512
sg5
I00
sg6
I1
sg7
S'INT AUTO_INCREMENT NOT NULL'
p18
sg9
I00
sg10
g16
ss.